target datalayout = "e-m:e-p270:32:32-p271:32:32-p272:64:64-i64:64-i128:128-f80:128-n8:16:32:64-S128"
target triple = "x86_64-pc-linux-gnu"

%struct.frwd_struct = type { ptr, i64, i32, i32, i32, i32 }

; Function Attrs: inlinehint nounwind uwtable
define internal i32 @read_le_uint32(ptr noundef %0) #4 {
  %2 = alloca ptr, align 8
  store ptr %0, ptr %2, align 8, !tbaa !115
  %3 = load ptr, ptr %2, align 8, !tbaa !115
  %4 = load i32, ptr %3, align 4, !tbaa !10
  ret i32 %4
}

; Function Attrs: inlinehint nounwind uwtable
define internal void @frwd_read(ptr noundef %0) #4 {
  %2 = alloca ptr, align 8
  %3 = alloca i32, align 4
  %4 = alloca i32, align 4
  %5 = alloca i32, align 4
  %6 = alloca i32, align 4
  %7 = alloca i32, align 4
  %8 = alloca i32, align 4
  %9 = alloca i32, align 4
  store ptr %0, ptr %2, align 8, !tbaa !103
  call void @llvm.lifetime.start.p0(i64 4, ptr %3) #7
  call void @llvm.lifetime.start.p0(i64 4, ptr %4) #7
  call void @llvm.lifetime.start.p0(i64 4, ptr %5) #7
  call void @llvm.lifetime.start.p0(i64 4, ptr %6) #7
  store i32 0, ptr %3, align 4, !tbaa !10
  %10 = load ptr, ptr %2, align 8, !tbaa !103
  %11 = getelementptr inbounds nuw %struct.frwd_struct, ptr %10, i32 0, i32 4
  %12 = load i32, ptr %11, align 8, !tbaa !110
  %13 = icmp sgt i32 %12, 3
  br i1 %13, label %14, label %27

14:                                               ; preds = %1
  %15 = load ptr, ptr %2, align 8, !tbaa !103
  %16 = getelementptr inbounds nuw %struct.frwd_struct, ptr %15, i32 0, i32 0
  %17 = load ptr, ptr %16, align 8, !tbaa !105
  %18 = call i32 @read_le_uint32(ptr noundef %17)
  store i32 %18, ptr %3, align 4, !tbaa !10
  %19 = load ptr, ptr %2, align 8, !tbaa !103
  %20 = getelementptr inbounds nuw %struct.frwd_struct, ptr %19, i32 0, i32 0
  %21 = load ptr, ptr %20, align 8, !tbaa !105
  %22 = getelementptr inbounds i8, ptr %21, i64 4
  store ptr %22, ptr %20, align 8, !tbaa !105
  %23 = load ptr, ptr %2, align 8, !tbaa !103
  %24 = getelementptr inbounds nuw %struct.frwd_struct, ptr %23, i32 0, i32 4
  %25 = load i32, ptr %24, align 8, !tbaa !110
  %26 = sub nsw i32 %25, 4
  store i32 %26, ptr %24, align 8, !tbaa !110
  br label %74

27:                                               ; preds = %1
  %28 = load ptr, ptr %2, align 8, !tbaa !103
  %29 = getelementptr inbounds nuw %struct.frwd_struct, ptr %28, i32 0, i32 4
  %30 = load i32, ptr %29, align 8, !tbaa !110
  %31 = icmp sgt i32 %30, 0
  br i1 %31, label %32, label %67

32:                                               ; preds = %27
  call void @llvm.lifetime.start.p0(i64 4, ptr %7) #7
  store i32 0, ptr %7, align 4, !tbaa !10
  %33 = load ptr, ptr %2, align 8, !tbaa !103
  %34 = getelementptr inbounds nuw %struct.frwd_struct, ptr %33, i32 0, i32 5
  %35 = load i32, ptr %34, align 4, !tbaa !111
  %36 = icmp ne i32 %35, 0
  %37 = select i1 %36, i32 -1, i32 0
  store i32 %37, ptr %3, align 4, !tbaa !10
  br label %38

38:                                               ; preds = %43, %32
  %39 = load ptr, ptr %2, align 8, !tbaa !103
  %40 = getelementptr inbounds nuw %struct.frwd_struct, ptr %39, i32 0, i32 4
  %41 = load i32, ptr %40, align 8, !tbaa !110
  %42 = icmp sgt i32 %41, 0
  br i1 %42, label %43, label %66

43:                                               ; preds = %38
  call void @llvm.lifetime.start.p0(i64 4, ptr %8) #7
  %44 = load ptr, ptr %2, align 8, !tbaa !103
  %45 = getelementptr inbounds nuw %struct.frwd_struct, ptr %44, i32 0, i32 0
  %46 = load ptr, ptr %45, align 8, !tbaa !105
  %47 = getelementptr inbounds nuw i8, ptr %46, i32 1
  store ptr %47, ptr %45, align 8, !tbaa !105
  %48 = load i8, ptr %46, align 1, !tbaa !51
  %49 = zext i8 %48 to i32
  store i32 %49, ptr %8, align 4, !tbaa !10
  call void @llvm.lifetime.start.p0(i64 4, ptr %9) #7
  %50 = load i32, ptr %7, align 4, !tbaa !10
  %51 = shl i32 255, %50
  %52 = xor i32 %51, -1
  store i32 %52, ptr %9, align 4, !tbaa !10
  %53 = load i32, ptr %3, align 4, !tbaa !10
  %54 = load i32, ptr %9, align 4, !tbaa !10
  %55 = and i32 %53, %54
  %56 = load i32, ptr %8, align 4, !tbaa !10
  %57 = load i32, ptr %7, align 4, !tbaa !10
  %58 = shl i32 %56, %57
  %59 = or i32 %55, %58
  store i32 %59, ptr %3, align 4, !tbaa !10
  %60 = load ptr, ptr %2, align 8, !tbaa !103
  %61 = getelementptr inbounds nuw %struct.frwd_struct, ptr %60, i32 0, i32 4
  %62 = load i32, ptr %61, align 8, !tbaa !110
  %63 = add nsw i32 %62, -1
  store i32 %63, ptr %61, align 8, !tbaa !110
  %64 = load i32, ptr %7, align 4, !tbaa !10
  %65 = add nsw i32 %64, 8
  store i32 %65, ptr %7, align 4, !tbaa !10
  call void @llvm.lifetime.end.p0(i64 4, ptr %9) #7
  call void @llvm.lifetime.end.p0(i64 4, ptr %8) #7
  br label %38, !llvm.loop !116

66:                                               ; preds = %38
  call void @llvm.lifetime.end.p0(i64 4, ptr %7) #7
  br label %73

67:                                               ; preds = %27
  %68 = load ptr, ptr %2, align 8, !tbaa !103
  %69 = getelementptr inbounds nuw %struct.frwd_struct, ptr %68, i32 0, i32 5
  %70 = load i32, ptr %69, align 4, !tbaa !111
  %71 = icmp ne i32 %70, 0
  %72 = select i1 %71, i32 -1, i32 0
  store i32 %72, ptr %3, align 4, !tbaa !10
  br label %73

73:                                               ; preds = %67, %66
  br label %74

74:                                               ; preds = %73, %14
  %75 = load ptr, ptr %2, align 8, !tbaa !103
  %76 = getelementptr inbounds nuw %struct.frwd_struct, ptr %75, i32 0, i32 3
  %77 = load i32, ptr %76, align 4, !tbaa !109
  %78 = icmp ne i32 %77, 0
  %79 = select i1 %78, i32 1, i32 0
  %80 = sub i32 8, %79
  store i32 %80, ptr %4, align 4, !tbaa !10
  %81 = load i32, ptr %3, align 4, !tbaa !10
  %82 = and i32 %81, 255
  store i32 %82, ptr %5, align 4, !tbaa !10
  %83 = load i32, ptr %3, align 4, !tbaa !10
  %84 = and i32 %83, 255
  %85 = icmp eq i32 %84, 255
  %86 = zext i1 %85 to i32
  store i32 %86, ptr %6, align 4, !tbaa !10
  %87 = load i32, ptr %3, align 4, !tbaa !10
  %88 = lshr i32 %87, 8
  %89 = and i32 %88, 255
  %90 = load i32, ptr %4, align 4, !tbaa !10
  %91 = shl i32 %89, %90
  %92 = load i32, ptr %5, align 4, !tbaa !10
  %93 = or i32 %92, %91
  store i32 %93, ptr %5, align 4, !tbaa !10
  %94 = load i32, ptr %6, align 4, !tbaa !10
  %95 = icmp ne i32 %94, 0
  %96 = select i1 %95, i32 1, i32 0
  %97 = sub i32 8, %96
  %98 = load i32, ptr %4, align 4, !tbaa !10
  %99 = add i32 %98, %97
  store i32 %99, ptr %4, align 4, !tbaa !10
  %100 = load i32, ptr %3, align 4, !tbaa !10
  %101 = lshr i32 %100, 8
  %102 = and i32 %101, 255
  %103 = icmp eq i32 %102, 255
  %104 = zext i1 %103 to i32
  store i32 %104, ptr %6, align 4, !tbaa !10
  %105 = load i32, ptr %3, align 4, !tbaa !10
  %106 = lshr i32 %105, 16
  %107 = and i32 %106, 255
  %108 = load i32, ptr %4, align 4, !tbaa !10
  %109 = shl i32 %107, %108
  %110 = load i32, ptr %5, align 4, !tbaa !10
  %111 = or i32 %110, %109
  store i32 %111, ptr %5, align 4, !tbaa !10
  %112 = load i32, ptr %6, align 4, !tbaa !10
  %113 = icmp ne i32 %112, 0
  %114 = select i1 %113, i32 1, i32 0
  %115 = sub i32 8, %114
  %116 = load i32, ptr %4, align 4, !tbaa !10
  %117 = add i32 %116, %115
  store i32 %117, ptr %4, align 4, !tbaa !10
  %118 = load i32, ptr %3, align 4, !tbaa !10
  %119 = lshr i32 %118, 16
  %120 = and i32 %119, 255
  %121 = icmp eq i32 %120, 255
  %122 = zext i1 %121 to i32
  store i32 %122, ptr %6, align 4, !tbaa !10
  %123 = load i32, ptr %3, align 4, !tbaa !10
  %124 = lshr i32 %123, 24
  %125 = and i32 %124, 255
  %126 = load i32, ptr %4, align 4, !tbaa !10
  %127 = shl i32 %125, %126
  %128 = load i32, ptr %5, align 4, !tbaa !10
  %129 = or i32 %128, %127
  store i32 %129, ptr %5, align 4, !tbaa !10
  %130 = load i32, ptr %6, align 4, !tbaa !10
  %131 = icmp ne i32 %130, 0
  %132 = select i1 %131, i32 1, i32 0
  %133 = sub i32 8, %132
  %134 = load i32, ptr %4, align 4, !tbaa !10
  %135 = add i32 %134, %133
  store i32 %135, ptr %4, align 4, !tbaa !10
  %136 = load i32, ptr %3, align 4, !tbaa !10
  %137 = lshr i32 %136, 24
  %138 = and i32 %137, 255
  %139 = icmp eq i32 %138, 255
  %140 = zext i1 %139 to i32
  %141 = load ptr, ptr %2, align 8, !tbaa !103
  %142 = getelementptr inbounds nuw %struct.frwd_struct, ptr %141, i32 0, i32 3
  store i32 %140, ptr %142, align 4, !tbaa !109
  %143 = load i32, ptr %5, align 4, !tbaa !10
  %144 = zext i32 %143 to i64
  %145 = load ptr, ptr %2, align 8, !tbaa !103
  %146 = getelementptr inbounds nuw %struct.frwd_struct, ptr %145, i32 0, i32 2
  %147 = load i32, ptr %146, align 8, !tbaa !108
  %148 = zext i32 %147 to i64
  %149 = shl i64 %144, %148
  %150 = load ptr, ptr %2, align 8, !tbaa !103
  %151 = getelementptr inbounds nuw %struct.frwd_struct, ptr %150, i32 0, i32 1
  %152 = load i64, ptr %151, align 8, !tbaa !107
  %153 = or i64 %152, %149
  store i64 %153, ptr %151, align 8, !tbaa !107
  %154 = load i32, ptr %4, align 4, !tbaa !10
  %155 = load ptr, ptr %2, align 8, !tbaa !103
  %156 = getelementptr inbounds nuw %struct.frwd_struct, ptr %155, i32 0, i32 2
  %157 = load i32, ptr %156, align 8, !tbaa !108
  %158 = add i32 %157, %154
  store i32 %158, ptr %156, align 8, !tbaa !108
  call void @llvm.lifetime.end.p0(i64 4, ptr %6) #7
  call void @llvm.lifetime.end.p0(i64 4, ptr %5) #7
  call void @llvm.lifetime.end.p0(i64 4, ptr %4) #7
  call void @llvm.lifetime.end.p0(i64 4, ptr %3) #7
  ret void
}

; Function Attrs: inlinehint nounwind uwtable
define internal void @frwd_init(ptr noundef %0, ptr noundef %1, i32 noundef %2, i32 noundef %3) #4 {
  %5 = alloca ptr, align 8
  %6 = alloca ptr, align 8
  %7 = alloca i32, align 4
  %8 = alloca i32, align 4
  %9 = alloca i32, align 4
  %10 = alloca i32, align 4
  %11 = alloca i64, align 8
  store ptr %0, ptr %5, align 8, !tbaa !103
  store ptr %1, ptr %6, align 8, !tbaa !16
  store i32 %2, ptr %7, align 4, !tbaa !10
  store i32 %3, ptr %8, align 4, !tbaa !10
  call void @llvm.lifetime.start.p0(i64 4, ptr %9) #7
  call void @llvm.lifetime.start.p0(i64 4, ptr %10) #7
  %12 = load ptr, ptr %6, align 8, !tbaa !16
  %13 = load ptr, ptr %5, align 8, !tbaa !103
  %14 = getelementptr inbounds nuw %struct.frwd_struct, ptr %13, i32 0, i32 0
  store ptr %12, ptr %14, align 8, !tbaa !105
  %15 = load ptr, ptr %5, align 8, !tbaa !103
  %16 = getelementptr inbounds nuw %struct.frwd_struct, ptr %15, i32 0, i32 1
  store i64 0, ptr %16, align 8, !tbaa !107
  %17 = load ptr, ptr %5, align 8, !tbaa !103
  %18 = getelementptr inbounds nuw %struct.frwd_struct, ptr %17, i32 0, i32 2
  store i32 0, ptr %18, align 8, !tbaa !108
  %19 = load ptr, ptr %5, align 8, !tbaa !103
  %20 = getelementptr inbounds nuw %struct.frwd_struct, ptr %19, i32 0, i32 3
  store i32 0, ptr %20, align 4, !tbaa !109
  %21 = load i32, ptr %7, align 4, !tbaa !10
  %22 = load ptr, ptr %5, align 8, !tbaa !103
  %23 = getelementptr inbounds nuw %struct.frwd_struct, ptr %22, i32 0, i32 4
  store i32 %21, ptr %23, align 8, !tbaa !110
  %24 = load i32, ptr %8, align 4, !tbaa !10
  %25 = load ptr, ptr %5, align 8, !tbaa !103
  %26 = getelementptr inbounds nuw %struct.frwd_struct, ptr %25, i32 0, i32 5
  store i32 %24, ptr %26, align 4, !tbaa !111
  %27 = load ptr, ptr %5, align 8, !tbaa !103
  %28 = getelementptr inbounds nuw %struct.frwd_struct, ptr %27, i32 0, i32 0
  %29 = load ptr, ptr %28, align 8, !tbaa !105
  %30 = ptrtoint ptr %29 to i64
  %31 = and i64 %30, 3
  %32 = trunc i64 %31 to i32
  %33 = sub nsw i32 4, %32
  store i32 %33, ptr %9, align 4, !tbaa !10
  store i32 0, ptr %10, align 4, !tbaa !10
  br label %34

34:                                               ; preds = %84, %4
  %35 = load i32, ptr %10, align 4, !tbaa !10
  %36 = load i32, ptr %9, align 4, !tbaa !10
  %37 = icmp slt i32 %35, %36
  br i1 %37, label %38, label %87

38:                                               ; preds = %34
  call void @llvm.lifetime.start.p0(i64 8, ptr %11) #7
  %39 = load ptr, ptr %5, align 8, !tbaa !103
  %40 = getelementptr inbounds nuw %struct.frwd_struct, ptr %39, i32 0, i32 4
  %41 = load i32, ptr %40, align 8, !tbaa !110
  %42 = add nsw i32 %41, -1
  store i32 %42, ptr %40, align 8, !tbaa !110
  %43 = icmp sgt i32 %41, 0
  br i1 %43, label %44, label %51

44:                                               ; preds = %38
  %45 = load ptr, ptr %5, align 8, !tbaa !103
  %46 = getelementptr inbounds nuw %struct.frwd_struct, ptr %45, i32 0, i32 0
  %47 = load ptr, ptr %46, align 8, !tbaa !105
  %48 = getelementptr inbounds nuw i8, ptr %47, i32 1
  store ptr %48, ptr %46, align 8, !tbaa !105
  %49 = load i8, ptr %47, align 1, !tbaa !51
  %50 = zext i8 %49 to i32
  br label %55

51:                                               ; preds = %38
  %52 = load ptr, ptr %5, align 8, !tbaa !103
  %53 = getelementptr inbounds nuw %struct.frwd_struct, ptr %52, i32 0, i32 5
  %54 = load i32, ptr %53, align 4, !tbaa !111
  br label %55

55:                                               ; preds = %51, %44
  %56 = phi i32 [ %50, %44 ], [ %54, %51 ]
  %57 = zext i32 %56 to i64
  store i64 %57, ptr %11, align 8, !tbaa !92
  %58 = load i64, ptr %11, align 8, !tbaa !92
  %59 = load ptr, ptr %5, align 8, !tbaa !103
  %60 = getelementptr inbounds nuw %struct.frwd_struct, ptr %59, i32 0, i32 2
  %61 = load i32, ptr %60, align 8, !tbaa !108
  %62 = zext i32 %61 to i64
  %63 = shl i64 %58, %62
  %64 = load ptr, ptr %5, align 8, !tbaa !103
  %65 = getelementptr inbounds nuw %struct.frwd_struct, ptr %64, i32 0, i32 1
  %66 = load i64, ptr %65, align 8, !tbaa !107
  %67 = or i64 %66, %63
  store i64 %67, ptr %65, align 8, !tbaa !107
  %68 = load ptr, ptr %5, align 8, !tbaa !103
  %69 = getelementptr inbounds nuw %struct.frwd_struct, ptr %68, i32 0, i32 3
  %70 = load i32, ptr %69, align 4, !tbaa !109
  %71 = icmp ne i32 %70, 0
  %72 = select i1 %71, i32 1, i32 0
  %73 = sub i32 8, %72
  %74 = load ptr, ptr %5, align 8, !tbaa !103
  %75 = getelementptr inbounds nuw %struct.frwd_struct, ptr %74, i32 0, i32 2
  %76 = load i32, ptr %75, align 8, !tbaa !108
  %77 = add i32 %76, %73
  store i32 %77, ptr %75, align 8, !tbaa !108
  %78 = load i64, ptr %11, align 8, !tbaa !92
  %79 = and i64 %78, 255
  %80 = icmp eq i64 %79, 255
  %81 = zext i1 %80 to i32
  %82 = load ptr, ptr %5, align 8, !tbaa !103
  %83 = getelementptr inbounds nuw %struct.frwd_struct, ptr %82, i32 0, i32 3
  store i32 %81, ptr %83, align 4, !tbaa !109
  call void @llvm.lifetime.end.p0(i64 8, ptr %11) #7
  br label %84

84:                                               ; preds = %55
  %85 = load i32, ptr %10, align 4, !tbaa !10
  %86 = add nsw i32 %85, 1
  store i32 %86, ptr %10, align 4, !tbaa !10
  br label %34, !llvm.loop !112

87:                                               ; preds = %34
  %88 = load ptr, ptr %5, align 8, !tbaa !103
  call void @frwd_read(ptr noundef %88)
  call void @llvm.lifetime.end.p0(i64 4, ptr %10) #7
  call void @llvm.lifetime.end.p0(i64 4, ptr %9) #7
  ret void
}