; Function Attrs: inlinehint nofree norecurse nosync nounwind memory(argmem: readwrite) uwtable
define internal fastcc void @frwd_init(ptr noundef nonnull writeonly captures(none) initializes((0, 32)) %0, ptr noundef %1, i32 noundef %2, i32 noundef range(i32 0, 256) %3) unnamed_addr #4 {
  store ptr %1, ptr %0, align 8, !tbaa !90
  %5 = getelementptr inbounds nuw i8, ptr %0, i64 8
  %6 = getelementptr inbounds nuw i8, ptr %0, i64 16
  %7 = getelementptr inbounds nuw i8, ptr %0, i64 20
  %8 = getelementptr inbounds nuw i8, ptr %0, i64 24
  tail call void @llvm.memset.p0.i64(ptr noundef nonnull align 8 dereferenceable(16) %5, i8 0, i64 16, i1 false)
  %9 = getelementptr inbounds nuw i8, ptr %0, i64 28
  store i32 %3, ptr %9, align 4, !tbaa !91
  %10 = ptrtoint ptr %1 to i64
  %11 = trunc i64 %10 to i32
  %12 = and i32 %11, 3
  %13 = sub nuw nsw i32 4, %12
  br label %14

14:                                               ; preds = %4, %26
  %15 = phi ptr [ %1, %4 ], [ %27, %26 ]
  %.026 = phi i32 [ 0, %4 ], [ %37, %26 ]
  %16 = phi i32 [ %2, %4 ], [ %20, %26 ]
  %17 = phi i32 [ 0, %4 ], [ %34, %26 ]
  %18 = phi i64 [ 0, %4 ], [ %32, %26 ]
  %19 = phi i32 [ 0, %4 ], [ %36, %26 ]
  %20 = add nsw i32 %16, -1
  store i32 %20, ptr %8, align 8, !tbaa !92
  %21 = icmp sgt i32 %16, 0
  br i1 %21, label %22, label %26

22:                                               ; preds = %14
  %23 = getelementptr inbounds nuw i8, ptr %15, i64 1
  store ptr %23, ptr %0, align 8, !tbaa !90
  %24 = load i8, ptr %15, align 1, !tbaa !44
  %25 = zext i8 %24 to i32
  br label %26

26:                                               ; preds = %14, %22
  %27 = phi ptr [ %23, %22 ], [ %15, %14 ]
  %28 = phi i32 [ %25, %22 ], [ %3, %14 ]
  %29 = zext nneg i32 %28 to i64
  %30 = zext nneg i32 %17 to i64
  %31 = shl i64 %29, %30
  %32 = or i64 %31, %18
  store i64 %32, ptr %5, align 8, !tbaa !52
  %.not.not = icmp eq i32 %19, 0
  %33 = select i1 %.not.not, i32 8, i32 7
  %34 = add i32 %33, %17
  store i32 %34, ptr %6, align 8, !tbaa !54
  %35 = icmp eq i32 %28, 255
  %36 = zext i1 %35 to i32
  store i32 %36, ptr %7, align 4, !tbaa !93
  %37 = add nuw nsw i32 %.026, 1
  %exitcond.not = icmp eq i32 %37, %13
  br i1 %exitcond.not, label %38, label %14, !llvm.loop !94

38:                                               ; preds = %26
  %39 = icmp sgt i32 %16, 4
  br i1 %39, label %40, label %43

40:                                               ; preds = %38
  %.val.i = load i32, ptr %27, align 4, !tbaa !51
  %41 = getelementptr inbounds nuw i8, ptr %27, i64 4
  store ptr %41, ptr %0, align 8, !tbaa !90
  %42 = add nsw i32 %16, -5
  store i32 %42, ptr %8, align 8, !tbaa !92
  br label %frwd_read.exit

43:                                               ; preds = %38
  %44 = icmp sgt i32 %16, 1
  %.not44.i = icmp ne i32 %3, 0
  %45 = sext i1 %.not44.i to i32
  br i1 %44, label %.lr.ph.i, label %frwd_read.exit

.lr.ph.i:                                         ; preds = %43, %.lr.ph.i
  %46 = phi ptr [ %48, %.lr.ph.i ], [ %27, %43 ]
  %.147.i = phi i32 [ %55, %.lr.ph.i ], [ %45, %43 ]
  %.04246.i = phi i32 [ %57, %.lr.ph.i ], [ 0, %43 ]
  %47 = phi i32 [ %56, %.lr.ph.i ], [ %20, %43 ]
  %48 = getelementptr inbounds nuw i8, ptr %46, i64 1
  store ptr %48, ptr %0, align 8, !tbaa !90
  %49 = load i8, ptr %46, align 1, !tbaa !44
  %50 = zext i8 %49 to i32
  %51 = shl i32 255, %.04246.i
  %52 = xor i32 %51, -1
  %53 = and i32 %.147.i, %52
  %54 = shl i32 %50, %.04246.i
  %55 = or i32 %54, %53
  %56 = add nsw i32 %47, -1
  store i32 %56, ptr %8, align 8, !tbaa !92
  %57 = add nuw nsw i32 %.04246.i, 8
  %58 = icmp samesign ugt i32 %47, 1
  br i1 %58, label %.lr.ph.i, label %frwd_read.exit, !llvm.loop !95

frwd_read.exit:                                   ; preds = %.lr.ph.i, %40, %43
  %.0.i = phi i32 [ %.val.i, %40 ], [ %45, %43 ], [ %55, %.lr.ph.i ]
  %59 = select i1 %35, i32 7, i32 8
  %60 = and i32 %.0.i, 255
  %61 = icmp eq i32 %60, 255
  %62 = lshr i32 %.0.i, 8
  %63 = and i32 %62, 255
  %64 = shl nuw nsw i32 %63, %59
  %65 = select i1 %61, i32 7, i32 8
  %66 = add nuw nsw i32 %59, %65
  %67 = icmp eq i32 %63, 255
  %68 = lshr i32 %.0.i, 16
  %69 = and i32 %68, 255
  %70 = shl nuw nsw i32 %69, %66
  %71 = select i1 %67, i32 7, i32 8
  %72 = add nuw nsw i32 %66, %71
  %73 = icmp eq i32 %69, 255
  %74 = lshr i32 %.0.i, 24
  %75 = shl nuw i32 %74, %72
  %76 = or i32 %64, %70
  %77 = or i32 %76, %75
  %78 = or i32 %77, %60
  %79 = select i1 %73, i32 7, i32 8
  %80 = icmp eq i32 %74, 255
  %81 = zext i1 %80 to i32
  store i32 %81, ptr %7, align 4, !tbaa !93
  %82 = zext i32 %78 to i64
  %83 = zext nneg i32 %34 to i64
  %84 = shl i64 %82, %83
  %85 = or i64 %84, %32
  store i64 %85, ptr %5, align 8, !tbaa !52
  %86 = add i32 %79, %34
  %87 = add i32 %86, %72
  store i32 %87, ptr %6, align 8, !tbaa !54
  ret void
}